; Function Attrs: mustprogress nounwind uwtable
define internal fastcc noundef zeroext i1 @_ZNK12_GLOBAL__N_115X86DAGToDAGISel19isUnneededShiftMaskEPN4llvm6SDNodeEj(ptr %.64.val, ptr nocapture readonly %.40.val, i32 noundef %0) unnamed_addr #0 align 2 {
  %2 = alloca %"class.llvm::APInt", align 8
  %3 = alloca %"struct.llvm::KnownBits", align 8
  %4 = getelementptr inbounds i8, ptr %.40.val, i64 40
  %5 = load ptr, ptr %4, align 8
  %6 = getelementptr inbounds nuw i8, ptr %5, i64 88
  %7 = load ptr, ptr %6, align 8
  %8 = getelementptr inbounds nuw i8, ptr %7, i64 24
  %9 = getelementptr inbounds i8, ptr %7, i64 32
  %10 = load i32, ptr %9, align 8
  %11 = icmp ult i32 %10, 65
  br i1 %11, label %12, label %17

12:                                               ; preds = %1
  %13 = load i64, ptr %8, align 8
  %14 = xor i64 %13, -1
  %15 = tail call range(i64 0, 65) i64 @llvm.cttz.i64(i64 %14, i1 false)
  %16 = trunc nuw nsw i64 %15 to i32
  br label %_ZNK4llvm5APInt10countr_oneEv.exit

17:                                               ; preds = %1
  %18 = tail call noundef i32 @_ZNK4llvm5APInt25countTrailingOnesSlowCaseEv(ptr noundef nonnull align 8 dereferenceable(12) %8) #27
  br label %_ZNK4llvm5APInt10countr_oneEv.exit

_ZNK4llvm5APInt10countr_oneEv.exit:               ; preds = %12, %17
  %.0.i = phi i32 [ %16, %12 ], [ %18, %17 ]
  %.not = icmp ult i32 %.0.i, %0
  br i1 %.not, label %19, label %_ZN4llvm5APIntD2Ev.exit

19:                                               ; preds = %_ZNK4llvm5APInt10countr_oneEv.exit
  %.sroa.0.0.copyload = load ptr, ptr %.40.val, align 8
  %.sroa.2.0..sroa_idx = getelementptr inbounds i8, ptr %.40.val, i64 8
  %.sroa.2.0.copyload = load i32, ptr %.sroa.2.0..sroa_idx, align 8
  call void @_ZNK4llvm12SelectionDAG16computeKnownBitsENS_7SDValueEj(ptr dead_on_unwind nonnull writable sret(%"struct.llvm::KnownBits") align 8 %3, ptr noundef nonnull align 8 dereferenceable(904) %.64.val, ptr %.sroa.0.0.copyload, i32 %.sroa.2.0.copyload, i32 noundef 0) #23
  call void @llvm.experimental.noalias.scope.decl(metadata !79)
  %20 = getelementptr inbounds nuw i8, ptr %3, i64 8
  %21 = load i32, ptr %20, align 8, !noalias !79
  %22 = icmp ult i32 %21, 65
  br i1 %22, label %23, label %27

23:                                               ; preds = %19
  %24 = load i64, ptr %8, align 8, !noalias !79
  %25 = load i64, ptr %3, align 8, !noalias !79
  %26 = or i64 %25, %24
  store i64 %26, ptr %3, align 8, !noalias !79
  br label %_ZN4llvmorERKNS_5APIntEOS0_.exit

27:                                               ; preds = %19
  call void @_ZN4llvm5APInt16orAssignSlowCaseERKS0_(ptr noundef nonnull align 8 dereferenceable(12) %3, ptr noundef nonnull align 8 dereferenceable(12) %8) #23, !noalias !79
  %.pre.i = load i32, ptr %20, align 8, !noalias !79
  %.pre3.i = load i64, ptr %3, align 8, !noalias !79
  br label %_ZN4llvmorERKNS_5APIntEOS0_.exit

_ZN4llvmorERKNS_5APIntEOS0_.exit:                 ; preds = %23, %27
  %28 = phi i64 [ %26, %23 ], [ %.pre3.i, %27 ]
  %29 = phi i32 [ %21, %23 ], [ %.pre.i, %27 ]
  %30 = getelementptr inbounds nuw i8, ptr %2, i64 8
  store i32 %29, ptr %30, align 8, !alias.scope !79
  store i64 %28, ptr %2, align 8, !alias.scope !79
  store i32 0, ptr %20, align 8, !noalias !79
  %31 = getelementptr inbounds i8, ptr %3, i64 24
  %32 = load i32, ptr %31, align 8
  %33 = icmp ugt i32 %32, 64
  %34 = inttoptr i64 %28 to ptr
  br i1 %33, label %35, label %_ZN4llvm9KnownBitsD2Ev.exit

35:                                               ; preds = %_ZN4llvmorERKNS_5APIntEOS0_.exit
  %36 = getelementptr inbounds nuw i8, ptr %3, i64 16
  %37 = load ptr, ptr %36, align 8
  %38 = icmp eq ptr %37, null
  br i1 %38, label %_ZN4llvm9KnownBitsD2Ev.exit, label %_ZN4llvm5APIntD2Ev.exit.i

_ZN4llvm5APIntD2Ev.exit.i:                        ; preds = %35
  call void @_ZdaPv(ptr noundef nonnull %37) #26
  %.pr.pre = load i32, ptr %20, align 8
  %39 = icmp ugt i32 %.pr.pre, 64
  br i1 %39, label %40, label %_ZN4llvm9KnownBitsD2Ev.exit

40:                                               ; preds = %_ZN4llvm5APIntD2Ev.exit.i
  %41 = load ptr, ptr %3, align 8
  %42 = icmp eq ptr %41, null
  br i1 %42, label %_ZN4llvm9KnownBitsD2Ev.exit, label %43

43:                                               ; preds = %40
  call void @_ZdaPv(ptr noundef nonnull %41) #26
  br label %_ZN4llvm9KnownBitsD2Ev.exit

_ZN4llvm9KnownBitsD2Ev.exit:                      ; preds = %35, %_ZN4llvmorERKNS_5APIntEOS0_.exit, %_ZN4llvm5APIntD2Ev.exit.i, %40, %43
  %44 = icmp ult i32 %29, 65
  br i1 %44, label %_ZNK4llvm5APInt10countr_oneEv.exit9, label %49

_ZNK4llvm5APInt10countr_oneEv.exit9:              ; preds = %_ZN4llvm9KnownBitsD2Ev.exit
  %45 = xor i64 %28, -1
  %46 = call range(i64 0, 65) i64 @llvm.cttz.i64(i64 %45, i1 false)
  %47 = trunc nuw nsw i64 %46 to i32
  %48 = icmp ule i32 %0, %47
  br label %_ZN4llvm5APIntD2Ev.exit

49:                                               ; preds = %_ZN4llvm9KnownBitsD2Ev.exit
  %50 = call noundef i32 @_ZNK4llvm5APInt25countTrailingOnesSlowCaseEv(ptr noundef nonnull align 8 dereferenceable(12) %2) #27
  %51 = icmp uge i32 %50, %0
  %52 = icmp eq i64 %28, 0
  br i1 %52, label %_ZN4llvm5APIntD2Ev.exit, label %53

53:                                               ; preds = %49
  call void @_ZdaPv(ptr noundef nonnull %34) #26
  br label %_ZN4llvm5APIntD2Ev.exit

_ZN4llvm5APIntD2Ev.exit:                          ; preds = %53, %49, %_ZNK4llvm5APInt10countr_oneEv.exit9, %_ZNK4llvm5APInt10countr_oneEv.exit
  %.0 = phi i1 [ true, %_ZNK4llvm5APInt10countr_oneEv.exit ], [ %48, %_ZNK4llvm5APInt10countr_oneEv.exit9 ], [ %51, %49 ], [ %51, %53 ]
  ret i1 %.0
}